(dp0
S'METTS MARK'
p1
(dp2
S'to_messages'
p3
I807
sS'deferral_payments'
p4
S'NaN'
p5
sS'expenses'
p6
I94299
sS'poi'
p7
I00
sS'deferred_income'
p8
g5
sS'long_term_incentive'
p9
g5
sS'fraction_from_poi'
p10
F1.3103448275862069
sS'restricted_stock_deferred'
p11
g5
sS'shared_receipt_with_poi'
p12
I702
sS'loan_advances'
p13
g5
sS'from_messages'
p14
I29
sS'other'
p15
I1740
sS'director_fees'
p16
g5
sS'bonus'
p17
I600000
sS'total_stock_value'
p18
I585062
sS'from_poi_to_this_person'
p19
I38
sS'from_this_person_to_poi'
p20
I1
sS'restricted_stock'
p21
I585062
sS'salary'
p22
I365788
sS'total_payments'
p23
I1061827
sS'fraction_to_poi'
p24
F0.0012391573729863693
sS'exercised_stock_options'
p25
g5
sS'bonus_to_salary'
p26
F1.6402943781644013
ssS'BAXTER JOHN C'
p27
(dp28
g3
g5
sg4
I1295738
sg6
I11200
sg7
I00
sg8
I-1386055
sg9
I1586055
sg10
S'NaN'
p29
sg11
g5
sg12
g5
sg13
g5
sg14
g5
sg15
I2660303
sg16
g5
sg17
I1200000
sg18
I10623258
sg19
g5
sg20
g5
sg21
I3942714
sg22
I267102
sg23
I5634343
sg24
g29
sg25
I6680544
sg26
F4.492665723206865
ssS'ELLIOTT STEVEN'
p30
(dp31
g3
g5
sg4
g5
sg6
I78552
sg7
I00
sg8
I-400729
sg9
g5
sg10
g29
sg11
g5
sg12
g5
sg13
g5
sg14
g5
sg15
I12961
sg16
g5
sg17
I350000
sg18
I6678735
sg19
g5
sg20
g5
sg21
I1788391
sg22
I170941
sg23
I211725
sg24
g29
sg25
I4890344
sg26
F2.047490069673162
ssS'CORDES WILLIAM R'
p32
(dp33
g3
I764
sg4
g5
sg6
g5
sg7
I00
sg8
g5
sg9
g5
sg10
F0.8333333333333334
sg11
g5
sg12
I58
sg13
g5
sg14
I12
sg15
g5
sg16
g5
sg17
g5
sg18
I1038185
sg19
I10
sg20
I0
sg21
I386335
sg22
g5
sg23
g5
sg24
F0.0
sg25
I651850
sg26
g29
ssS'HANNON KEVIN P'
p34
(dp35
g3
I1045
sg4
g5
sg6
I34039
sg7
I01
sg8
I-3117011
sg9
I1617011
sg10
F1.0
sg11
g5
sg12
I1035
sg13
g5
sg14
I32
sg15
I11350
sg16
g5
sg17
I1500000
sg18
I6391065
sg19
I32
sg20
I21
sg21
I853064
sg22
I243293
sg23
I288682
sg24
F0.020095693779904306
sg25
I5538001
sg26
F6.165405498719651
ssS'MORDAUNT KRISTINA M'
p36
(dp37
g3
g5
sg4
g5
sg6
I35018
sg7
I00
sg8
g5
sg9
g5
sg10
g29
sg11
g5
sg12
g5
sg13
g5
sg14
g5
sg15
I1411
sg16
g5
sg17
I325000
sg18
I208510
sg19
g5
sg20
g5
sg21
I208510
sg22
I267093
sg23
I628522
sg24
g29
sg25
g5
sg26
F1.2168046335920448
ssS'MEYER ROCKFORD G'
p38
(dp39
g3
I232
sg4
I1848227
sg6
g5
sg7
I00
sg8
g5
sg9
g5
sg10
F0.0
sg11
g5
sg12
I22
sg13
g5
sg14
I28
sg15
g5
sg16
g5
sg17
g5
sg18
I955873
sg19
I0
sg20
I0
sg21
I462384
sg22
g5
sg23
I1848227
sg24
F0.0
sg25
I493489
sg26
g29
ssS'MCMAHON JEFFREY'
p40
(dp41
g3
I2355
sg4
g5
sg6
I137108
sg7
I00
sg8
g5
sg9
I694862
sg10
F1.2083333333333333
sg11
g5
sg12
I2228
sg13
g5
sg14
I48
sg15
I297353
sg16
g5
sg17
I2600000
sg18
I1662855
sg19
I58
sg20
I26
sg21
I558801
sg22
I370448
sg23
I4099771
sg24
F0.011040339702760084
sg25
I1104054
sg26
F7.018528916339135
ssS'HORTON STANLEY C'
p42
(dp43
g3
I2350
sg4
I3131860
sg6
g5
sg7
I00
sg8
g5
sg9
g5
sg10
F0.04100652376514446
sg11
g5
sg12
I1074
sg13
g5
sg14
I1073
sg15
g5
sg16
g5
sg17
g5
sg18
I7256648
sg19
I44
sg20
I15
sg21
I2046079
sg22
g5
sg23
I3131860
sg24
F0.006382978723404255
sg25
I5210569
sg26
g29
ssS'PIPER GREGORY F'
p44
(dp45
g3
I1238
sg4
I1130036
sg6
I43057
sg7
I00
sg8
I-33333
sg9
g5
sg10
F0.2747747747747748
sg11
I-409554
sg12
I742
sg13
g5
sg14
I222
sg15
I778
sg16
g5
sg17
I400000
sg18
I880290
sg19
I61
sg20
I48
sg21
I409554
sg22
I197091
sg23
I1737629
sg24
F0.03877221324717286
sg25
I880290
sg26
F2.0295193590777862
ssS'HUMPHREY GENE E'
p46
(dp47
g3
I128
sg4
I2964506
sg6
I4994
sg7
I00
sg8
g5
sg9
g5
sg10
F0.5882352941176471
sg11
g5
sg12
I119
sg13
g5
sg14
I17
sg15
g5
sg16
g5
sg17
g5
sg18
I2282768
sg19
I10
sg20
I17
sg21
g5
sg22
I130724
sg23
I3100224
sg24
F0.1328125
sg25
I2282768
sg26
g29
ssS'UMANOFF ADAM S'
p48
(dp49
g3
I111
sg4
g5
sg6
I53122
sg7
I00
sg8
g5
sg9
g5
sg10
F0.6666666666666666
sg11
g5
sg12
I41
sg13
g5
sg14
I18
sg15
g5
sg16
g5
sg17
I788750
sg18
g5
sg19
I12
sg20
I0
sg21
g5
sg22
I288589
sg23
I1130461
sg24
F0.0
sg25
g5
sg26
F2.7331256562100426
ssS'BLACHMAN JEREMY M'
p50
(dp51
g3
I2475
sg4
g5
sg6
I84208
sg7
I00
sg8
g5
sg9
I831809
sg10
F1.7857142857142858
sg11
g5
sg12
I2326
sg13
g5
sg14
I14
sg15
I272
sg16
g5
sg17
I850000
sg18
I954354
sg19
I25
sg20
I2
sg21
I189041
sg22
I248546
sg23
I2014835
sg24
F0.0008080808080808081
sg25
I765313
sg26
F3.419890080709406
ssS'SUNDE MARTIN'
p52
(dp53
g3
I2647
sg4
g5
sg6
g5
sg7
I00
sg8
g5
sg9
I476451
sg10
F0.9736842105263158
sg11
g5
sg12
I2565
sg13
g5
sg14
I38
sg15
I111122
sg16
g5
sg17
I700000
sg18
I698920
sg19
I37
sg20
I13
sg21
I698920
sg22
I257486
sg23
I1545059
sg24
F0.004911220249338874
sg25
g5
sg26
F2.7185944090164127
ssS'GIBBS DANA R'
p54
(dp55
g3
I169
sg4
I504610
sg6
g5
sg7
I00
sg8
g5
sg9
I461912
sg10
F0.0
sg11
g5
sg12
I23
sg13
g5
sg14
I12
sg15
g5
sg16
g5
sg17
g5
sg18
I2218275
sg19
I0
sg20
I0
sg21
g5
sg22
g5
sg23
I966522
sg24
F0.0
sg25
I2218275
sg26
g29
ssS'LOWRY CHARLES P'
p56
(dp57
g3
g5
sg4
g5
sg6
g5
sg7
I00
sg8
g5
sg9
g5
sg10
g29
sg11
I-153686
sg12
g5
sg13
g5
sg14
g5
sg15
g5
sg16
g5
sg17
g5
sg18
I372205
sg19
g5
sg20
g5
sg21
I153686
sg22
g5
sg23
g5
sg24
g29
sg25
I372205
sg26
g29
ssS'COLWELL WESLEY'
p58
(dp59
g3
I1758
sg4
I27610
sg6
I16514
sg7
I01
sg8
I-144062
sg9
g5
sg10
F6.0
sg11
g5
sg12
I1132
sg13
g5
sg14
I40
sg15
I101740
sg16
g5
sg17
I1200000
sg18
I698242
sg19
I240
sg20
I11
sg21
I698242
sg22
I288542
sg23
I1490344
sg24
F0.006257110352673493
sg25
g5
sg26
F4.158839960906905
ssS'MULLER MARK S'
p60
(dp61
g3
I136
sg4
I842924
sg6
g5
sg7
I00
sg8
I-719000
sg9
I1725545
sg10
F0.75
sg11
g5
sg12
I114
sg13
g5
sg14
I16
sg15
I947
sg16
g5
sg17
I1100000
sg18
I1416848
sg19
I12
sg20
I0
sg21
I360528
sg22
I251654
sg23
I3202070
sg24
F0.0
sg25
I1056320
sg26
F4.3710809285765375
ssS'JACKSON CHARLENE R'
p62
(dp63
g3
I258
sg4
g5
sg6
I10181
sg7
I00
sg8
g5
sg9
g5
sg10
F0.44642857142857145
sg11
g5
sg12
I117
sg13
g5
sg14
I56
sg15
I2435
sg16
g5
sg17
I250000
sg18
I725735
sg19
I25
sg20
I19
sg21
I540672
sg22
I288558
sg23
I551174
sg24
F0.07364341085271318
sg25
I185063
sg26
F0.8663769502145149
ssS'WESTFAHL RICHARD K'
p64
(dp65
g3
g5
sg4
g5
sg6
I51870
sg7
I00
sg8
I-10800
sg9
I256191
sg10
g29
sg11
g5
sg12
g5
sg13
g5
sg14
g5
sg15
I401130
sg16
g5
sg17
g5
sg18
I384930
sg19
g5
sg20
g5
sg21
I384930
sg22
I63744
sg23
I762135
sg24
g29
sg25
g5
sg26
g29
ssS'WALTERS GARETH W'
p66
(dp67
g3
g5
sg4
I53625
sg6
I33785
sg7
I00
sg8
g5
sg9
g5
sg10
g29
sg11
g5
sg12
g5
sg13
g5
sg14
g5
sg15
g5
sg16
g5
sg17
g5
sg18
I1030329
sg19
g5
sg20
g5
sg21
g5
sg22
g5
sg23
I87410
sg24
g29
sg25
I1030329
sg26
g29
ssS'WALLS JR ROBERT H'
p68
(dp69
g3
I671
sg4
g5
sg6
I50936
sg7
I00
sg8
g5
sg9
I540751
sg10
F0.11643835616438356
sg11
g5
sg12
I215
sg13
g5
sg14
I146
sg15
I2
sg16
g5
sg17
I850000
sg18
I5898997
sg19
I17
sg20
I0
sg21
I1552453
sg22
I357091
sg23
I1798780
sg24
F0.0
sg25
I4346544
sg26
F2.380345626184922
ssS'KITCHEN LOUISE'
p70
(dp71
g3
I8305
sg4
g5
sg6
I5774
sg7
I00
sg8
g5
sg9
g5
sg10
F0.14525462962962962
sg11
g5
sg12
I3669
sg13
g5
sg14
I1728
sg15
I93925
sg16
g5
sg17
I3100000
sg18
I547143
sg19
I251
sg20
I194
sg21
I466101
sg22
I271442
sg23
I3471141
sg24
F0.023359422034918725
sg25
I81042
sg26
F11.420487617981005
ssS'CHAN RONNIE'
p72
(dp73
g3
g5
sg4
g5
sg6
g5
sg7
I00
sg8
I-98784
sg9
g5
sg10
g29
sg11
I-32460
sg12
g5
sg13
g5
sg14
g5
sg15
g5
sg16
I98784
sg17
g5
sg18
g5
sg19
g5
sg20
g5
sg21
I32460
sg22
g5
sg23
g5
sg24
g29
sg25
g5
sg26
g29
ssS'BELFER ROBERT'
p74
(dp75
g3
g5
sg4
I-102500
sg6
g5
sg7
I00
sg8
g5
sg9
g5
sg10
g29
sg11
I44093
sg12
g5
sg13
g5
sg14
g5
sg15
g5
sg16
I3285
sg17
g5
sg18
I-44093
sg19
g5
sg20
g5
sg21
g5
sg22
g5
sg23
I102500
sg24
g29
sg25
I3285
sg26
g29
ssS'SHANKMAN JEFFREY A'
p76
(dp77
g3
I3221
sg4
g5
sg6
I178979
sg7
I00
sg8
g5
sg9
I554422
sg10
F0.0350615441999254
sg11
g5
sg12
I1730
sg13
g5
sg14
I2681
sg15
I1191
sg16
g5
sg17
I2000000
sg18
I2072035
sg19
I94
sg20
I83
sg21
I630137
sg22
I304110
sg23
I3038702
sg24
F0.025768394908413535
sg25
I1441898
sg26
F6.576567689322943
ssS'WODRASKA JOHN'
p78
(dp79
g3
g5
sg4
g5
sg6
g5
sg7
I00
sg8
g5
sg9
g5
sg10
g29
sg11
g5
sg12
g5
sg13
g5
sg14
g5
sg15
I189583
sg16
g5
sg17
g5
sg18
g5
sg19
g5
sg20
g5
sg21
g5
sg22
g5
sg23
I189583
sg24
g29
sg25
g5
sg26
g29
ssS'BERGSIEKER RICHARD P'
p80
(dp81
g3
I383
sg4
g5
sg6
I59175
sg7
I00
sg8
I-485813
sg9
I180250
sg10
F0.06779661016949153
sg11
g5
sg12
I233
sg13
g5
sg14
I59
sg15
I427316
sg16
g5
sg17
I250000
sg18
I659249
sg19
I4
sg20
I0
sg21
I659249
sg22
I187922
sg23
I618850
sg24
F0.0
sg25
g5
sg26
F1.3303391832781686
ssS'URQUHART JOHN A'
p82
(dp83
g3
g5
sg4
g5
sg6
I228656
sg7
I00
sg8
I-36666
sg9
g5
sg10
g29
sg11
g5
sg12
g5
sg13
g5
sg14
g5
sg15
g5
sg16
I36666
sg17
g5
sg18
g5
sg19
g5
sg20
g5
sg21
g5
sg22
g5
sg23
I228656
sg24
g29
sg25
g5
sg26
g29
ssS'BIBI PHILIPPE A'
p84
(dp85
g3
I1607
sg4
g5
sg6
I38559
sg7
I00
sg8
g5
sg9
I369721
sg10
F0.575
sg11
g5
sg12
I1336
sg13
g5
sg14
I40
sg15
I425688
sg16
g5
sg17
I1000000
sg18
I1843816
sg19
I23
sg20
I8
sg21
I378082
sg22
I213625
sg23
I2047593
sg24
F0.004978220286247666
sg25
I1465734
sg26
F4.681100058513751
ssS'RIEKER PAULA H'
p86
(dp87
g3
I1328
sg4
I214678
sg6
I33271
sg7
I01
sg8
I-100000
sg9
g5
sg10
F0.4268292682926829
sg11
g5
sg12
I1258
sg13
g5
sg14
I82
sg15
I1950
sg16
g5
sg17
I700000
sg18
I1918887
sg19
I35
sg20
I48
sg21
I283649
sg22
I249201
sg23
I1099100
sg24
F0.03614457831325301
sg25
I1635238
sg26
F2.8089774920646384
ssS'WHALEY DAVID A'
p88
(dp89
g3
g5
sg4
g5
sg6
g5
sg7
I00
sg8
g5
sg9
g5
sg10
g29
sg11
g5
sg12
g5
sg13
g5
sg14
g5
sg15
g5
sg16
g5
sg17
g5
sg18
I98718
sg19
g5
sg20
g5
sg21
g5
sg22
g5
sg23
g5
sg24
g29
sg25
I98718
sg26
g29
ssS'BECK SALLY W'
p90
(dp91
g3
I7315
sg4
g5
sg6
I37172
sg7
I00
sg8
g5
sg9
g5
sg10
F0.033156804052498275
sg11
g5
sg12
I2639
sg13
g5
sg14
I4343
sg15
I566
sg16
g5
sg17
I700000
sg18
I126027
sg19
I144
sg20
I386
sg21
I126027
sg22
I231330
sg23
I969068
sg24
F0.052768284347231714
sg25
g5
sg26
F3.025980201443825
ssS'HAUG DAVID L'
p92
(dp93
g3
I573
sg4
g5
sg6
I475
sg7
I00
sg8
g5
sg9
g5
sg10
F0.21052631578947367
sg11
g5
sg12
I471
sg13
g5
sg14
I19
sg15
g5
sg16
g5
sg17
g5
sg18
I2217299
sg19
I4
sg20
I7
sg21
I2217299
sg22
g5
sg23
I475
sg24
F0.012216404886561954
sg25
g5
sg26
g29
ssS'ECHOLS JOHN B'
p94
(dp95
g3
g5
sg4
g5
sg6
I21530
sg7
I00
sg8
g5
sg9
I2234774
sg10
g29
sg11
g5
sg12
g5
sg13
g5
sg14
g5
sg15
I53775
sg16
g5
sg17
I200000
sg18
I1008941
sg19
g5
sg20
g5
sg21
I407503
sg22
I182245
sg23
I2692324
sg24
g29
sg25
I601438
sg26
F1.0974237976350518
ssS'MENDELSOHN JOHN'
p96
(dp97
g3
g5
sg4
g5
sg6
I148
sg7
I00
sg8
I-103750
sg9
g5
sg10
g29
sg11
g5
sg12
g5
sg13
g5
sg14
g5
sg15
g5
sg16
I103750
sg17
g5
sg18
g5
sg19
g5
sg20
g5
sg21
g5
sg22
g5
sg23
I148
sg24
g29
sg25
g5
sg26
g29
ssS'HICKERSON GARY J'
p98
(dp99
g3
I1320
sg4
g5
sg6
I98849
sg7
I00
sg8
g5
sg9
I69223
sg10
F1.4814814814814814
sg11
g5
sg12
I900
sg13
g5
sg14
I27
sg15
I1936
sg16
g5
sg17
I1700000
sg18
I441096
sg19
I40
sg20
I1
sg21
I441096
sg22
I211788
sg23
I2081796
sg24
F0.0007575757575757576
sg25
g5
sg26
F8.02689481934765
ssS'CLINE KENNETH W'
p100
(dp101
g3
g5
sg4
g5
sg6
g5
sg7
I00
sg8
g5
sg9
g5
sg10
g29
sg11
I-472568
sg12
g5
sg13
g5
sg14
g5
sg15
g5
sg16
g5
sg17
g5
sg18
I189518
sg19
g5
sg20
g5
sg21
I662086
sg22
g5
sg23
g5
sg24
g29
sg25
g5
sg26
g29
ssS'LEWIS RICHARD'
p102
(dp103
g3
I952
sg4
g5
sg6
g5
sg7
I00
sg8
g5
sg9
g5
sg10
F0.38461538461538464
sg11
g5
sg12
I739
sg13
g5
sg14
I26
sg15
g5
sg16
g5
sg17
g5
sg18
I850477
sg19
I10
sg20
I0
sg21
g5
sg22
g5
sg23
g5
sg24
F0.0
sg25
I850477
sg26
g29
ssS'HAYES ROBERT E'
p104
(dp105
g3
I504
sg4
I7961
sg6
g5
sg7
I00
sg8
g5
sg9
g5
sg10
F1.3333333333333333
sg11
g5
sg12
I50
sg13
g5
sg14
I12
sg15
g5
sg16
g5
sg17
g5
sg18
I151418
sg19
I16
sg20
I0
sg21
I151418
sg22
g5
sg23
I7961
sg24
F0.0
sg25
g5
sg26
g29
ssS'MCCARTY DANNY J'
p106
(dp107
g3
I1433
sg4
g5
sg6
g5
sg7
I00
sg8
g5
sg9
g5
sg10
F0.11627906976744186
sg11
g5
sg12
I508
sg13
g5
sg14
I215
sg15
g5
sg16
g5
sg17
g5
sg18
I758931
sg19
I25
sg20
I2
sg21
I94556
sg22
g5
sg23
g5
sg24
F0.0013956734124214933
sg25
I664375
sg26
g29
ssS'KOPPER MICHAEL J'
p108
(dp109
g3
g5
sg4
g5
sg6
I118134
sg7
I01
sg8
g5
sg9
I602671
sg10
g29
sg11
g5
sg12
g5
sg13
g5
sg14
g5
sg15
I907502
sg16
g5
sg17
I800000
sg18
I985032
sg19
g5
sg20
g5
sg21
I985032
sg22
I224305
sg23
I2652612
sg24
g29
sg25
g5
sg26
F3.5665723011078665
ssS'LEFF DANIEL P'
p110
(dp111
g3
I2822
sg4
g5
sg6
g5
sg7
I00
sg8
g5
sg9
I1387399
sg10
F1.0634920634920635
sg11
g5
sg12
I2672
sg13
g5
sg14
I63
sg15
I3083
sg16
g5
sg17
I1000000
sg18
I360528
sg19
I67
sg20
I14
sg21
I360528
sg22
I273746
sg23
I2664228
sg24
F0.004961020552799433
sg25
g5
sg26
F3.653021414011529
ssS'LAVORATO JOHN J'
p112
(dp113
g3
I7259
sg4
g5
sg6
I49537
sg7
I00
sg8
g5
sg9
I2035380
sg10
F0.20425531914893616
sg11
g5
sg12
I3962
sg13
g5
sg14
I2585
sg15
I1552
sg16
g5
sg17
I8000000
sg18
I5167144
sg19
I528
sg20
I411
sg21
I1008149
sg22
I339288
sg23
I10425757
sg24
F0.05661936905909905
sg25
I4158995
sg26
F23.57878852184575
ssS'BERBERIAN DAVID'
p114
(dp115
g3
g5
sg4
g5
sg6
I11892
sg7
I00
sg8
g5
sg9
g5
sg10
g29
sg11
g5
sg12
g5
sg13
g5
sg14
g5
sg15
g5
sg16
g5
sg17
g5
sg18
I2493616
sg19
g5
sg20
g5
sg21
I869220
sg22
I216582
sg23
I228474
sg24
g29
sg25
I1624396
sg26
g29
ssS'DETMERING TIMOTHY J'
p116
(dp117
g3
g5
sg4
I875307
sg6
I52255
sg7
I00
sg8
I-775241
sg9
I415657
sg10
g29
sg11
I-315068
sg12
g5
sg13
g5
sg14
g5
sg15
I1105
sg16
g5
sg17
I425000
sg18
I2027865
sg19
g5
sg20
g5
sg21
I315068
sg22
I210500
sg23
I1204583
sg24
g29
sg25
I2027865
sg26
F2.019002375296912
ssS'WAKEHAM JOHN'
p118
(dp119
g3
g5
sg4
g5
sg6
I103773
sg7
I00
sg8
g5
sg9
g5
sg10
g29
sg11
g5
sg12
g5
sg13
g5
sg14
g5
sg15
g5
sg16
I109298
sg17
g5
sg18
g5
sg19
g5
sg20
g5
sg21
g5
sg22
g5
sg23
I213071
sg24
g29
sg25
g5
sg26
g29
ssS'POWERS WILLIAM'
p120
(dp121
g3
I653
sg4
g5
sg6
g5
sg7
I00
sg8
I-17500
sg9
g5
sg10
F0.0
sg11
g5
sg12
I12
sg13
g5
sg14
I26
sg15
g5
sg16
I17500
sg17
g5
sg18
g5
sg19
I0
sg20
I0
sg21
g5
sg22
g5
sg23
g5
sg24
F0.0
sg25
g5
sg26
g29
ssS'GOLD JOSEPH'
p122
(dp123
g3
g5
sg4
g5
sg6
g5
sg7
I00
sg8
g5
sg9
I304805
sg10
g29
sg11
g5
sg12
g5
sg13
g5
sg14
g5
sg15
I819288
sg16
g5
sg17
I750000
sg18
I877611
sg19
g5
sg20
g5
sg21
I441096
sg22
I272880
sg23
I2146973
sg24
g29
sg25
I436515
sg26
F2.748460861917326
ssS'BANNANTINE JAMES M'
p124
(dp125
g3
I566
sg4
g5
sg6
I56301
sg7
I00
sg8
I-5104
sg9
g5
sg10
F1.3448275862068966
sg11
I-560222
sg12
I465
sg13
g5
sg14
I29
sg15
I864523
sg16
g5
sg17
g5
sg18
I5243487
sg19
I39
sg20
I0
sg21
I1757552
sg22
I477
sg23
I916197
sg24
F0.0
sg25
I4046157
sg26
g29
ssS'DUNCAN JOHN H'
p126
(dp127
g3
g5
sg4
g5
sg6
g5
sg7
I00
sg8
I-25000
sg9
g5
sg10
g29
sg11
g5
sg12
g5
sg13
g5
sg14
g5
sg15
g5
sg16
I102492
sg17
g5
sg18
I371750
sg19
g5
sg20
g5
sg21
g5
sg22
g5
sg23
I77492
sg24
g29
sg25
I371750
sg26
g29
ssS'SHAPIRO RICHARD S'
p128
(dp129
g3
I15149
sg4
g5
sg6
I137767
sg7
I00
sg8
g5
sg9
g5
sg10
F0.060905349794238686
sg11
g5
sg12
I4527
sg13
g5
sg14
I1215
sg15
I705
sg16
g5
sg17
I650000
sg18
I987001
sg19
I74
sg20
I65
sg21
I379164
sg22
I269076
sg23
I1057548
sg24
F0.004290712258234867
sg25
I607837
sg26
F2.4156743819590005
ssS'SHERRIFF JOHN R'
p130
(dp131
g3
I3187
sg4
g5
sg6
g5
sg7
I00
sg8
g5
sg9
I554422
sg10
F0.30434782608695654
sg11
g5
sg12
I2103
sg13
g5
sg14
I92
sg15
I1852186
sg16
g5
sg17
I1500000
sg18
I3128982
sg19
I28
sg20
I23
sg21
I1293424
sg22
I428780
sg23
I4335388
sg24
F0.0072168183244430495
sg25
I1835558
sg26
F3.4982974952189934
ssS'SHELBY REX'
p132
(dp133
g3
I225
sg4
g5
sg6
I22884
sg7
I01
sg8
I-4167
sg9
g5
sg10
F0.3333333333333333
sg11
g5
sg12
I91
sg13
g5
sg14
I39
sg15
I1573324
sg16
g5
sg17
I200000
sg18
I2493616
sg19
I13
sg20
I14
sg21
I869220
sg22
I211844
sg23
I2003885
sg24
F0.06222222222222222
sg25
I1624396
sg26
F0.9440909348388437
ssS'LEMAISTRE CHARLES'
p134
(dp135
g3
g5
sg4
g5
sg6
g5
sg7
I00
sg8
I-25000
sg9
g5
sg10
g29
sg11
g5
sg12
g5
sg13
g5
sg14
g5
sg15
g5
sg16
I112492
sg17
g5
sg18
I412878
sg19
g5
sg20
g5
sg21
g5
sg22
g5
sg23
I87492
sg24
g29
sg25
I412878
sg26
g29
ssS'DEFFNER JOSEPH M'
p136
(dp137
g3
I714
sg4
g5
sg6
I41626
sg7
I00
sg8
g5
sg9
I335349
sg10
F1.554054054054054
sg11
g5
sg12
I552
sg13
g5
sg14
I74
sg15
I25553
sg16
g5
sg17
I600000
sg18
I159211
sg19
I115
sg20
I4
sg21
I141833
sg22
I206121
sg23
I1208649
sg24
F0.0056022408963585435
sg25
I17378
sg26
F2.910911551952494
ssS'KISHKILL JOSEPH G'
p138
(dp139
g3
g5
sg4
g5
sg6
I116335
sg7
I00
sg8
I-51042
sg9
g5
sg10
g29
sg11
g5
sg12
g5
sg13
g5
sg14
g5
sg15
I465357
sg16
g5
sg17
g5
sg18
I1034346
sg19
g5
sg20
g5
sg21
I1034346
sg22
I174246
sg23
I704896
sg24
g29
sg25
g5
sg26
g29
ssS'WHALLEY LAWRENCE G'
p140
(dp141
g3
I6019
sg4
g5
sg6
I57838
sg7
I00
sg8
g5
sg9
I808346
sg10
F0.3345323741007194
sg11
g5
sg12
I3920
sg13
g5
sg14
I556
sg15
I301026
sg16
g5
sg17
I3000000
sg18
I6079137
sg19
I186
sg20
I24
sg21
I2796177
sg22
I510364
sg23
I4677574
sg24
F0.003987373317826882
sg25
I3282960
sg26
F5.878157550297435
ssS'MCCONNELL MICHAEL S'
p142
(dp143
g3
I3329
sg4
g5
sg6
I81364
sg7
I00
sg8
g5
sg9
I554422
sg10
F0.03355215171407731
sg11
g5
sg12
I2189
sg13
g5
sg14
I2742
sg15
I540
sg16
g5
sg17
I1100000
sg18
I3101279
sg19
I92
sg20
I194
sg21
I1478269
sg22
I365038
sg23
I2101364
sg24
F0.058275758486031844
sg25
I1623010
sg26
F3.013384907872605
ssS'PIRO JIM'
p144
(dp145
g3
I58
sg4
g5
sg6
g5
sg7
I00
sg8
g5
sg9
g5
sg10
F0.0
sg11
g5
sg12
I3
sg13
g5
sg14
I16
sg15
g5
sg16
g5
sg17
g5
sg18
I47304
sg19
I0
sg20
I1
sg21
I47304
sg22
g5
sg23
g5
sg24
F0.017241379310344827
sg25
g5
sg26
g29
ssS'DELAINEY DAVID W'
p146
(dp147
g3
I3093
sg4
g5
sg6
I86174
sg7
I01
sg8
g5
sg9
I1294981
sg10
F0.021505376344086023
sg11
g5
sg12
I2097
sg13
g5
sg14
I3069
sg15
I1661
sg16
g5
sg17
I3000000
sg18
I3614261
sg19
I66
sg20
I609
sg21
I1323148
sg22
I365163
sg23
I4747979
sg24
F0.19689621726479145
sg25
I2291113
sg26
F8.215509238340138
ssS'SULLIVAN-SHAKLOVITZ COLLEEN'
p148
(dp149
g3
g5
sg4
I181993
sg6
g5
sg7
I00
sg8
g5
sg9
I554422
sg10
g29
sg11
g5
sg12
g5
sg13
g5
sg14
g5
sg15
I162
sg16
g5
sg17
I100000
sg18
I1362375
sg19
g5
sg20
g5
sg21
g5
sg22
I162779
sg23
I999356
sg24
g29
sg25
I1362375
sg26
F0.6143298582741017
ssS'WROBEL BRUCE'
p150
(dp151
g3
g5
sg4
g5
sg6
g5
sg7
I00
sg8
g5
sg9
g5
sg10
g29
sg11
g5
sg12
g5
sg13
g5
sg14
g5
sg15
g5
sg16
g5
sg17
g5
sg18
I139130
sg19
g5
sg20
g5
sg21
g5
sg22
g5
sg23
g5
sg24
g29
sg25
I139130
sg26
g29
ssS'LINDHOLM TOD A'
p152
(dp153
g3
g5
sg4
I204075
sg6
I57727
sg7
I00
sg8
g5
sg9
I175000
sg10
g29
sg11
g5
sg12
g5
sg13
g5
sg14
g5
sg15
I2630
sg16
g5
sg17
I200000
sg18
I3064208
sg19
g5
sg20
g5
sg21
I514847
sg22
I236457
sg23
I875889
sg24
g29
sg25
I2549361
sg26
F0.8458197473536415
ssS'MEYER JEROME J'
p154
(dp155
g3
g5
sg4
g5
sg6
I2151
sg7
I00
sg8
I-38346
sg9
g5
sg10
g29
sg11
g5
sg12
g5
sg13
g5
sg14
g5
sg15
g5
sg16
I38346
sg17
g5
sg18
g5
sg19
g5
sg20
g5
sg21
g5
sg22
g5
sg23
I2151
sg24
g29
sg25
g5
sg26
g29
ssS'BUTTS ROBERT H'
p156
(dp157
g3
g5
sg4
g5
sg6
I9410
sg7
I00
sg8
I-75000
sg9
I175000
sg10
g29
sg11
g5
sg12
g5
sg13
g5
sg14
g5
sg15
I150656
sg16
g5
sg17
I750000
sg18
I417619
sg19
g5
sg20
g5
sg21
I417619
sg22
I261516
sg23
I1271582
sg24
g29
sg25
g5
sg26
F2.8678933602532926
ssS'OLSON CINDY K'
p158
(dp159
g3
I1184
sg4
I77716
sg6
I63791
sg7
I00
sg8
g5
sg9
I100000
sg10
F0.38461538461538464
sg11
g5
sg12
I856
sg13
g5
sg14
I52
sg15
I972
sg16
g5
sg17
I750000
sg18
I2606763
sg19
I20
sg20
I15
sg21
I969729
sg22
I329078
sg23
I1321557
sg24
F0.01266891891891892
sg25
I1637034
sg26
F2.279094925823057
ssS'MCDONALD REBECCA'
p160
(dp161
g3
I894
sg4
g5
sg6
g5
sg7
I00
sg8
g5
sg9
g5
sg10
F4.153846153846154
sg11
g5
sg12
I720
sg13
g5
sg14
I13
sg15
g5
sg16
g5
sg17
g5
sg18
I1691366
sg19
I54
sg20
I1
sg21
I934065
sg22
g5
sg23
g5
sg24
F0.0011185682326621924
sg25
I757301
sg26
g29
ssS'CUMBERLAND MICHAEL S'
p162
(dp163
g3
g5
sg4
g5
sg6
I22344
sg7
I00
sg8
g5
sg9
I275000
sg10
g29
sg11
g5
sg12
g5
sg13
g5
sg14
g5
sg15
I713
sg16
g5
sg17
I325000
sg18
I207940
sg19
g5
sg20
g5
sg21
I207940
sg22
I184899
sg23
I807956
sg24
g29
sg25
g5
sg26
F1.7577163748857485
ssS'GAHN ROBERT S'
p164
(dp165
g3
g5
sg4
I73122
sg6
I50080
sg7
I00
sg8
I-1042
sg9
g5
sg10
g29
sg11
g5
sg12
g5
sg13
g5
sg14
g5
sg15
I76547
sg16
g5
sg17
I509870
sg18
I318607
sg19
g5
sg20
g5
sg21
I235370
sg22
I192008
sg23
I900585
sg24
g29
sg25
I83237
sg26
F2.6554622724053165
ssS'MCCLELLAN GEORGE'
p166
(dp167
g3
I1744
sg4
g5
sg6
I228763
sg7
I00
sg8
I-125000
sg9
g5
sg10
F1.0612244897959184
sg11
g5
sg12
I1469
sg13
g5
sg14
I49
sg15
I51587
sg16
g5
sg17
I900000
sg18
I947861
sg19
I52
sg20
I0
sg21
I441096
sg22
I263413
sg23
I1318763
sg24
F0.0
sg25
I506765
sg26
F3.4166878627858153
ssS'HERMANN ROBERT J'
p168
(dp169
g3
g5
sg4
g5
sg6
I48357
sg7
I00
sg8
I-280000
sg9
I150000
sg10
g29
sg11
g5
sg12
g5
sg13
g5
sg14
g5
sg15
I416441
sg16
g5
sg17
I700000
sg18
I668132
sg19
g5
sg20
g5
sg21
I480632
sg22
I262663
sg23
I1297461
sg24
g29
sg25
I187500
sg26
F2.665011821231007
ssS'SCRIMSHAW MATTHEW'
p170
(dp171
g3
g5
sg4
g5
sg6
g5
sg7
I00
sg8
g5
sg9
g5
sg10
g29
sg11
g5
sg12
g5
sg13
g5
sg14
g5
sg15
g5
sg16
g5
sg17
g5
sg18
I759557
sg19
g5
sg20
g5
sg21
g5
sg22
g5
sg23
g5
sg24
g29
sg25
I759557
sg26
g29
ssS'GATHMANN WILLIAM D'
p172
(dp173
g3
g5
sg4
g5
sg6
g5
sg7
I00
sg8
g5
sg9
g5
sg10
g29
sg11
I-72419
sg12
g5
sg13
g5
sg14
g5
sg15
g5
sg16
g5
sg17
g5
sg18
I1945360
sg19
g5
sg20
g5
sg21
I264013
sg22
g5
sg23
g5
sg24
g29
sg25
I1753766
sg26
g29
ssS'HAEDICKE MARK E'
p174
(dp175
g3
I4009
sg4
I2157527
sg6
I76169
sg7
I00
sg8
I-934484
sg9
I983346
sg10
F0.09273570324574962
sg11
I-329825
sg12
I1847
sg13
g5
sg14
I1941
sg15
I52382
sg16
g5
sg17
I1150000
sg18
I803094
sg19
I180
sg20
I61
sg21
I524169
sg22
I374125
sg23
I3859065
sg24
F0.015215764529807932
sg25
I608750
sg26
F3.073838957567658
ssS'BOWEN JR RAYMOND M'
p176
(dp177
g3
I1858
sg4
g5
sg6
I65907
sg7
I01
sg8
I-833
sg9
I974293
sg10
F5.185185185185185
sg11
g5
sg12
I1593
sg13
g5
sg14
I27
sg15
I1621
sg16
g5
sg17
I1350000
sg18
I252055
sg19
I140
sg20
I15
sg21
I252055
sg22
I278601
sg23
I2669589
sg24
F0.008073196986006458
sg25
g5
sg26
F4.845639462887786
ssS'GILLIS JOHN'
p178
(dp179
g3
g5
sg4
g5
sg6
g5
sg7
I00
sg8
g5
sg9
g5
sg10
g29
sg11
g5
sg12
g5
sg13
g5
sg14
g5
sg15
g5
sg16
g5
sg17
g5
sg18
I85641
sg19
g5
sg20
g5
sg21
I75838
sg22
g5
sg23
g5
sg24
g29
sg25
I9803
sg26
g29
ssS'FITZGERALD JAY L'
p180
(dp181
g3
I936
sg4
g5
sg6
I23870
sg7
I00
sg8
g5
sg9
I556416
sg10
F0.0625
sg11
g5
sg12
I723
sg13
g5
sg14
I16
sg15
I285414
sg16
g5
sg17
I350000
sg18
I1621236
sg19
I1
sg20
I8
sg21
I956775
sg22
I199157
sg23
I1414857
sg24
F0.008547008547008548
sg25
I664461
sg26
F1.7574074724965731
ssS'MORAN MICHAEL P'
p182
(dp183
g3
I672
sg4
g5
sg6
g5
sg7
I00
sg8
g5
sg9
g5
sg10
F0.0
sg11
g5
sg12
I127
sg13
g5
sg14
I19
sg15
g5
sg16
g5
sg17
g5
sg18
I221141
sg19
I0
sg20
I0
sg21
I161602
sg22
g5
sg23
g5
sg24
F0.0
sg25
I59539
sg26
g29
ssS'REDMOND BRIAN L'
p184
(dp185
g3
I1671
sg4
g5
sg6
I14689
sg7
I00
sg8
g5
sg9
g5
sg10
F0.9230769230769231
sg11
g5
sg12
I1063
sg13
g5
sg14
I221
sg15
g5
sg16
g5
sg17
g5
sg18
I7890324
sg19
I204
sg20
I49
sg21
I381285
sg22
I96840
sg23
I111529
sg24
F0.029323758228605626
sg25
I7509039
sg26
g29
ssS'BAZELIDES PHILIP J'
p186
(dp187
g3
g5
sg4
I684694
sg6
g5
sg7
I00
sg8
g5
sg9
I93750
sg10
g29
sg11
g5
sg12
g5
sg13
g5
sg14
g5
sg15
I874
sg16
g5
sg17
g5
sg18
I1599641
sg19
g5
sg20
g5
sg21
g5
sg22
I80818
sg23
I860136
sg24
g29
sg25
I1599641
sg26
g29
ssS'BELDEN TIMOTHY N'
p188
(dp189
g3
I7991
sg4
I2144013
sg6
I17355
sg7
I01
sg8
I-2334434
sg9
g5
sg10
F0.47107438016528924
sg11
g5
sg12
I5521
sg13
g5
sg14
I484
sg15
I210698
sg16
g5
sg17
I5249999
sg18
I1110705
sg19
I228
sg20
I108
sg21
I157569
sg22
I213999
sg23
I5501630
sg24
F0.013515204605180828
sg25
I953136
sg26
F24.532820246823583
ssS'DURAN WILLIAM D'
p190
(dp191
g3
I904
sg4
g5
sg6
I25785
sg7
I00
sg8
g5
sg9
I1105218
sg10
F8.833333333333334
sg11
g5
sg12
I599
sg13
g5
sg14
I12
sg15
I1568
sg16
g5
sg17
I750000
sg18
I1640910
sg19
I106
sg20
I3
sg21
I189041
sg22
I210692
sg23
I2093263
sg24
F0.00331858407079646
sg25
I1451869
sg26
F3.559698517266911
ssS'THORN TERENCE H'
p192
(dp193
g3
I266
sg4
I16586
sg6
I46145
sg7
I00
sg8
g5
sg9
I200000
sg10
F0.0
sg11
g5
sg12
I73
sg13
g5
sg14
I41
sg15
I426629
sg16
g5
sg17
g5
sg18
I4817796
sg19
I0
sg20
I0
sg21
I365320
sg22
I222093
sg23
I911453
sg24
F0.0
sg25
I4452476
sg26
g29
ssS'FASTOW ANDREW S'
p194
(dp195
g3
g5
sg4
g5
sg6
I55921
sg7
I01
sg8
I-1386055
sg9
I1736055
sg10
g29
sg11
g5
sg12
g5
sg13
g5
sg14
g5
sg15
I277464
sg16
g5
sg17
I1300000
sg18
I1794412
sg19
g5
sg20
g5
sg21
I1794412
sg22
I440698
sg23
I2424083
sg24
g29
sg25
g5
sg26
F2.949865894558178
ssS'FOY JOE'
p196
(dp197
g3
I57
sg4
I181755
sg6
g5
sg7
I00
sg8
g5
sg9
g5
sg10
F0.0
sg11
g5
sg12
I2
sg13
g5
sg14
I13
sg15
g5
sg16
g5
sg17
g5
sg18
I343434
sg19
I0
sg20
I0
sg21
g5
sg22
g5
sg23
I181755
sg24
F0.0
sg25
I343434
sg26
g29
ssS'CALGER CHRISTOPHER F'
p198
(dp199
g3
I2598
sg4
g5
sg6
I35818
sg7
I01
sg8
I-262500
sg9
I375304
sg10
F1.3819444444444444
sg11
g5
sg12
I2188
sg13
g5
sg14
I144
sg15
I486
sg16
g5
sg17
I1250000
sg18
I126027
sg19
I199
sg20
I25
sg21
I126027
sg22
I240189
sg23
I1639297
sg24
F0.00962278675904542
sg25
g5
sg26
F5.204234998272194
ssS'RICE KENNETH D'
p200
(dp201
g3
I905
sg4
g5
sg6
I46950
sg7
I01
sg8
I-3504386
sg9
I1617011
sg10
F2.3333333333333335
sg11
g5
sg12
I864
sg13
g5
sg14
I18
sg15
I174839
sg16
g5
sg17
I1750000
sg18
I22542539
sg19
I42
sg20
I4
sg21
I2748364
sg22
I420636
sg23
I505050
sg24
F0.004419889502762431
sg25
I19794175
sg26
F4.160366682832663
ssS'KAMINSKI WINCENTY J'
p202
(dp203
g3
I4607
sg4
g5
sg6
I83585
sg7
I00
sg8
g5
sg9
I323466
sg10
F0.002853563474387528
sg11
g5
sg12
I583
sg13
g5
sg14
I14368
sg15
I4669
sg16
g5
sg17
I400000
sg18
I976037
sg19
I41
sg20
I171
sg21
I126027
sg22
I275101
sg23
I1086821
sg24
F0.03711742999782939
sg25
I850010
sg26
F1.4540114357999425
ssS'COX DAVID'
p204
(dp205
g3
I102
sg4
g5
sg6
I27861
sg7
I00
sg8
I-41250
sg9
g5
sg10
F0.0
sg11
g5
sg12
I71
sg13
g5
sg14
I33
sg15
I494
sg16
g5
sg17
I800000
sg18
I495633
sg19
I0
sg20
I4
sg21
I378082
sg22
I314288
sg23
I1101393
sg24
F0.0392156862745098
sg25
I117551
sg26
F2.5454360331924857
ssS'OVERDYKE JR JERE C'
p206
(dp207
g3
g5
sg4
g5
sg6
I18834
sg7
I00
sg8
g5
sg9
I135836
sg10
g29
sg11
g5
sg12
g5
sg13
g5
sg14
g5
sg15
I176
sg16
g5
sg17
g5
sg18
I7307594
sg19
g5
sg20
g5
sg21
I2041016
sg22
I94941
sg23
I249787
sg24
g29
sg25
I5266578
sg26
g29
ssS'PEREIRA PAULO V. FERRAZ'
p208
(dp209
g3
g5
sg4
g5
sg6
I27942
sg7
I00
sg8
I-101250
sg9
g5
sg10
g29
sg11
g5
sg12
g5
sg13
g5
sg14
g5
sg15
g5
sg16
I101250
sg17
g5
sg18
g5
sg19
g5
sg20
g5
sg21
g5
sg22
g5
sg23
I27942
sg24
g29
sg25
g5
sg26
g29
ssS'STABLER FRANK'
p210
(dp211
g3
g5
sg4
g5
sg6
I16514
sg7
I00
sg8
g5
sg9
g5
sg10
g29
sg11
g5
sg12
g5
sg13
g5
sg14
g5
sg15
I356071
sg16
g5
sg17
I500000
sg18
I511734
sg19
g5
sg20
g5
sg21
I511734
sg22
I239502
sg23
I1112087
sg24
g29
sg25
g5
sg26
F2.0876652387036434
ssS'SKILLING JEFFREY K'
p212
(dp213
g3
I3627
sg4
g5
sg6
I29336
sg7
I01
sg8
g5
sg9
I1920000
sg10
F0.8148148148148148
sg11
g5
sg12
I2042
sg13
g5
sg14
I108
sg15
I22122
sg16
g5
sg17
I5600000
sg18
I26093672
sg19
I88
sg20
I30
sg21
I6843672
sg22
I1111258
sg23
I8682716
sg24
F0.008271298593879239
sg25
I19250000
sg26
F5.03933380007163
ssS'BLAKE JR. NORMAN P'
p214
(dp215
g3
g5
sg4
g5
sg6
I1279
sg7
I00
sg8
I-113784
sg9
g5
sg10
g29
sg11
g5
sg12
g5
sg13
g5
sg14
g5
sg15
g5
sg16
I113784
sg17
g5
sg18
g5
sg19
g5
sg20
g5
sg21
g5
sg22
g5
sg23
I1279
sg24
g29
sg25
g5
sg26
g29
ssS'SHERRICK JEFFREY B'
p216
(dp217
g3
I613
sg4
g5
sg6
g5
sg7
I00
sg8
g5
sg9
g5
sg10
F1.56
sg11
g5
sg12
I583
sg13
g5
sg14
I25
sg15
g5
sg16
g5
sg17
g5
sg18
I1832468
sg19
I39
sg20
I18
sg21
I405999
sg22
g5
sg23
g5
sg24
F0.02936378466557912
sg25
I1426469
sg26
g29
ssS'PRENTICE JAMES'
p218
(dp219
g3
g5
sg4
I564348
sg6
g5
sg7
I00
sg8
g5
sg9
g5
sg10
g29
sg11
g5
sg12
g5
sg13
g5
sg14
g5
sg15
g5
sg16
g5
sg17
g5
sg18
I1095040
sg19
g5
sg20
g5
sg21
I208809
sg22
g5
sg23
I564348
sg24
g29
sg25
I886231
sg26
g29
ssS'GRAY RODNEY'
p220
(dp221
g3
g5
sg4
I93585
sg6
g5
sg7
I00
sg8
g5
sg9
I365625
sg10
g29
sg11
g5
sg12
g5
sg13
g5
sg14
g5
sg15
I680833
sg16
g5
sg17
g5
sg18
g5
sg19
g5
sg20
g5
sg21
g5
sg22
I6615
sg23
I1146658
sg24
g29
sg25
g5
sg26
g29
ssS'PICKERING MARK R'
p222
(dp223
g3
I898
sg4
g5
sg6
I31653
sg7
I00
sg8
g5
sg9
g5
sg10
F0.1044776119402985
sg11
g5
sg12
I728
sg13
I400000
sg14
I67
sg15
g5
sg16
g5
sg17
I300000
sg18
I28798
sg19
I7
sg20
I0
sg21
g5
sg22
I655037
sg23
I1386690
sg24
F0.0
sg25
I28798
sg26
F0.45798939601885086
ssS'NOLES JAMES L'
p224
(dp225
g3
g5
sg4
I774401
sg6
g5
sg7
I00
sg8
g5
sg9
g5
sg10
g29
sg11
I-94556
sg12
g5
sg13
g5
sg14
g5
sg15
g5
sg16
g5
sg17
g5
sg18
I368705
sg19
g5
sg20
g5
sg21
I463261
sg22
g5
sg23
I774401
sg24
g29
sg25
g5
sg26
g29
ssS'KEAN STEVEN J'
p226
(dp227
g3
I12754
sg4
g5
sg6
I41953
sg7
I00
sg8
g5
sg9
I300000
sg10
F0.020713123243083296
sg11
g5
sg12
I3639
sg13
g5
sg14
I6759
sg15
I1231
sg16
g5
sg17
I1000000
sg18
I6153642
sg19
I140
sg20
I387
sg21
I4131594
sg22
I404338
sg23
I1747522
sg24
F0.03034342167163243
sg25
I2022048
sg26
F2.473178380463869
ssS'FOWLER PEGGY'
p228
(dp229
g3
I517
sg4
g5
sg6
g5
sg7
I00
sg8
g5
sg9
g5
sg10
F0.0
sg11
g5
sg12
I10
sg13
g5
sg14
I36
sg15
g5
sg16
g5
sg17
g5
sg18
I1884748
sg19
I0
sg20
I0
sg21
I560170
sg22
g5
sg23
g5
sg24
F0.0
sg25
I1324578
sg26
g29
ssS'WASAFF GEORGE'
p230
(dp231
g3
I400
sg4
I831299
sg6
g5
sg7
I00
sg8
I-583325
sg9
I200000
sg10
F0.7333333333333333
sg11
g5
sg12
I337
sg13
g5
sg14
I30
sg15
I1425
sg16
g5
sg17
I325000
sg18
I2056427
sg19
I22
sg20
I7
sg21
I388167
sg22
I259996
sg23
I1034395
sg24
F0.0175
sg25
I1668260
sg26
F1.2500192310650933
ssS'WHITE JR THOMAS E'
p232
(dp233
g3
g5
sg4
g5
sg6
I81353
sg7
I00
sg8
g5
sg9
g5
sg10
g29
sg11
g5
sg12
g5
sg13
g5
sg14
g5
sg15
I1085463
sg16
g5
sg17
I450000
sg18
I15144123
sg19
g5
sg20
g5
sg21
I13847074
sg22
I317543
sg23
I1934359
sg24
g29
sg25
I1297049
sg26
F1.417130908254945
ssS'CHRISTODOULOU DIOMEDES'
p234
(dp235
g3
g5
sg4
g5
sg6
g5
sg7
I00
sg8
g5
sg9
g5
sg10
g29
sg11
g5
sg12
g5
sg13
g5
sg14
g5
sg15
g5
sg16
g5
sg17
g5
sg18
I6077885
sg19
g5
sg20
g5
sg21
I950730
sg22
g5
sg23
g5
sg24
g29
sg25
I5127155
sg26
g29
ssS'ALLEN PHILLIP K'
p236
(dp237
g3
I2902
sg4
I2869717
sg6
I13868
sg7
I00
sg8
I-3081055
sg9
I304805
sg10
F0.0214123006833713
sg11
I-126027
sg12
I1407
sg13
g5
sg14
I2195
sg15
I152
sg16
g5
sg17
I4175000
sg18
I1729541
sg19
I47
sg20
I65
sg21
I126027
sg22
I201955
sg23
I4484442
sg24
F0.022398345968297727
sg25
I1729541
sg26
F20.672922185635414
ssS'SHARP VICTORIA T'
p238
(dp239
g3
I3136
sg4
I187469
sg6
I116337
sg7
I00
sg8
g5
sg9
I422158
sg10
F0.17647058823529413
sg11
g5
sg12
I2477
sg13
g5
sg14
I136
sg15
I2401
sg16
g5
sg17
I600000
sg18
I494136
sg19
I24
sg20
I6
sg21
I213063
sg22
I248146
sg23
I1576511
sg24
F0.001913265306122449
sg25
I281073
sg26
F2.417931379107461
ssS'JAEDICKE ROBERT'
p240
(dp241
g3
g5
sg4
g5
sg6
g5
sg7
I00
sg8
I-25000
sg9
g5
sg10
g29
sg11
I-44093
sg12
g5
sg13
g5
sg14
g5
sg15
g5
sg16
I108750
sg17
g5
sg18
I431750
sg19
g5
sg20
g5
sg21
I44093
sg22
g5
sg23
I83750
sg24
g29
sg25
I431750
sg26
g29
ssS'WINOKUR JR. HERBERT S'
p242
(dp243
g3
g5
sg4
g5
sg6
I1413
sg7
I00
sg8
I-25000
sg9
g5
sg10
g29
sg11
g5
sg12
g5
sg13
g5
sg14
g5
sg15
g5
sg16
I108579
sg17
g5
sg18
g5
sg19
g5
sg20
g5
sg21
g5
sg22
g5
sg23
I84992
sg24
g29
sg25
g5
sg26
g29
ssS'BROWN MICHAEL'
p244
(dp245
g3
I1486
sg4
g5
sg6
I49288
sg7
I00
sg8
g5
sg9
g5
sg10
F0.3170731707317073
sg11
g5
sg12
I761
sg13
g5
sg14
I41
sg15
g5
sg16
g5
sg17
g5
sg18
g5
sg19
I13
sg20
I1
sg21
g5
sg22
g5
sg23
I49288
sg24
F0.0006729475100942127
sg25
g5
sg26
g29
ssS'BADUM JAMES P'
p246
(dp247
g3
g5
sg4
I178980
sg6
I3486
sg7
I00
sg8
g5
sg9
g5
sg10
g29
sg11
g5
sg12
g5
sg13
g5
sg14
g5
sg15
g5
sg16
g5
sg17
g5
sg18
I257817
sg19
g5
sg20
g5
sg21
g5
sg22
g5
sg23
I182466
sg24
g29
sg25
I257817
sg26
g29
ssS'HUGHES JAMES A'
p248
(dp249
g3
I719
sg4
g5
sg6
g5
sg7
I00
sg8
g5
sg9
g5
sg10
F1.0294117647058822
sg11
g5
sg12
I589
sg13
g5
sg14
I34
sg15
g5
sg16
g5
sg17
g5
sg18
I1118394
sg19
I35
sg20
I5
sg21
I363428
sg22
g5
sg23
g5
sg24
F0.006954102920723227
sg25
I754966
sg26
g29
ssS'REYNOLDS LAWRENCE'
p250
(dp251
g3
g5
sg4
I51365
sg6
I8409
sg7
I00
sg8
I-200000
sg9
I156250
sg10
g29
sg11
I-140264
sg12
g5
sg13
g5
sg14
g5
sg15
I202052
sg16
g5
sg17
I100000
sg18
I4221891
sg19
g5
sg20
g5
sg21
I201483
sg22
I76399
sg23
I394475
sg24
g29
sg25
I4160672
sg26
F1.3089176559902616
ssS'DIMICHELE RICHARD G'
p252
(dp253
g3
g5
sg4
g5
sg6
I35812
sg7
I00
sg8
g5
sg9
I694862
sg10
g29
sg11
g5
sg12
g5
sg13
g5
sg14
g5
sg15
I374689
sg16
g5
sg17
I1000000
sg18
I8317782
sg19
g5
sg20
g5
sg21
I126027
sg22
I262788
sg23
I2368151
sg24
g29
sg25
I8191755
sg26
F3.8053487982708494
ssS'BHATNAGAR SANJAY'
p254
(dp255
g3
I523
sg4
g5
sg6
g5
sg7
I00
sg8
g5
sg9
g5
sg10
F0.0
sg11
I15456290
sg12
I463
sg13
g5
sg14
I29
sg15
I137864
sg16
I137864
sg17
g5
sS'total_stock_value'
p256
S'NaN'
p257
sg19
I0
sg20
I1
sg21
I-2604490
sg22
g5
sg23
I15456290
sg24
F0.0019120458891013384
sg25
I2604490
sg26
g29
ssS'CARTER REBECCA C'
p258
(dp259
g3
I312
sg4
g5
sg6
g5
sg7
I00
sg8
I-159792
sg9
I75000
sg10
F1.9333333333333333
sg11
I-307301
sg12
I196
sg13
g5
sg14
I15
sg15
I540
sg16
g5
sg17
I300000
sg18
g5
sg19
I29
sg20
I7
sg21
I307301
sg22
I261809
sg23
I477557
sg24
F0.022435897435897436
sg25
g5
sg26
F1.14587351848103
ssS'BUCHANAN HAROLD G'
p260
(dp261
g3
I1088
sg4
g5
sg6
I600
sg7
I00
sg8
g5
sg9
I304805
sg10
F0.0
sg11
g5
sg12
I23
sg13
g5
sg14
I125
sg15
I1215
sg16
g5
sg17
I500000
sg18
I1014505
sg19
I0
sg20
I0
sg21
I189041
sg22
I248017
sg23
I1054637
sg24
F0.0
sg25
I825464
sg26
F2.015990839337626
ssS'YEAP SOON'
p262
(dp263
g3
g5
sg4
g5
sg6
I55097
sg7
I00
sg8
g5
sg9
g5
sg10
g29
sg11
g5
sg12
g5
sg13
g5
sg14
g5
sg15
g5
sg16
g5
sg17
g5
sg18
I192758
sg19
g5
sg20
g5
sg21
g5
sg22
g5
sg23
I55097
sg24
g29
sg25
I192758
sg26
g29
ssS'MURRAY JULIA H'
p264
(dp265
g3
I2192
sg4
g5
sg6
I57580
sg7
I00
sg8
g5
sg9
I125000
sg10
F0.24444444444444444
sg11
g5
sg12
I395
sg13
g5
sg14
I45
sg15
I330
sg16
g5
sg17
I400000
sg18
I597461
sg19
I11
sg20
I2
sg21
I196983
sg22
I229284
sg23
I812194
sg24
F0.0009124087591240876
sg25
I400478
sg26
F1.744561330053558
ssS'GARLAND C KEVIN'
p266
(dp267
g3
I209
sg4
g5
sg6
I48405
sg7
I00
sg8
g5
sg9
I375304
sg10
F0.22727272727272727
sg11
g5
sg12
I178
sg13
g5
sg14
I44
sg15
I60814
sg16
g5
sg17
I850000
sg18
I896153
sg19
I10
sg20
I27
sg21
I259907
sg22
I231946
sg23
I1566469
sg24
F0.1291866028708134
sg25
I636246
sg26
F3.6646460814155017
ssS'DODSON KEITH'
p268
(dp269
g3
I176
sg4
g5
sg6
I28164
sg7
I00
sg8
g5
sg9
g5
sg10
F0.7142857142857143
sg11
g5
sg12
I114
sg13
g5
sg14
I14
sg15
I774
sg16
g5
sg17
I70000
sg18
g5
sg19
I10
sg20
I3
sg21
g5
sg22
I221003
sg23
I319941
sg24
F0.017045454545454544
sg25
g5
sg26
F0.3167377818400655
ssS'YEAGER F SCOTT'
p270
(dp271
g3
g5
sg4
g5
sg6
I53947
sg7
I01
sg8
g5
sg9
g5
sg10
g29
sg11
g5
sg12
g5
sg13
g5
sg14
g5
sg15
I147950
sg16
g5
sg17
g5
sg18
I11884758
sg19
g5
sg20
g5
sg21
I3576206
sg22
I158403
sg23
I360300
sg24
g29
sg25
I8308552
sg26
g29
ssS'HIRKO JOSEPH'
p272
(dp273
g3
g5
sg4
I10259
sg6
I77978
sg7
I01
sg8
g5
sg9
g5
sg10
g29
sg11
g5
sg12
g5
sg13
g5
sg14
g5
sg15
I2856
sg16
g5
sg17
g5
sg18
I30766064
sg19
g5
sg20
g5
sg21
g5
sg22
g5
sg23
I91093
sg24
g29
sg25
I30766064
sg26
g29
ssS'DIETRICH JANET R'
p274
(dp275
g3
I2572
sg4
g5
sg6
I3475
sg7
I00
sg8
g5
sg9
I556416
sg10
F4.841269841269841
sg11
g5
sg12
I1902
sg13
g5
sg14
I63
sg15
I473
sg16
g5
sg17
I600000
sg18
I1865087
sg19
I305
sg20
I14
sg21
I315068
sg22
I250100
sg23
I1410464
sg24
F0.005443234836702955
sg25
I1550019
sg26
F2.3990403838464616
ssS'DERRICK JR. JAMES V'
p276
(dp277
g3
I2181
sg4
g5
sg6
I51124
sg7
I00
sg8
I-1284000
sg9
I484000
sg10
F0.0704070407040704
sg11
I-1787380
sg12
I1401
sg13
g5
sg14
I909
sg15
I7482
sg16
g5
sg17
I800000
sg18
I8831913
sg19
I64
sg20
I20
sg21
I1787380
sg22
I492375
sg23
I550981
sg24
F0.009170105456212746
sg25
I8831913
sg26
F1.6247778624016247
ssS'FREVERT MARK A'
p278
(dp279
g3
I3275
sg4
I6426990
sg6
I86987
sg7
I00
sg8
I-3367011
sg9
I1617011
sg10
F11.523809523809524
sg11
g5
sg12
I2979
sg13
I2000000
sg14
I21
sg15
I7427621
sg16
g5
sg17
I2000000
sg18
I14622185
sg19
I242
sg20
I6
sg21
I4188667
sg22
I1060932
sg23
I17252530
sg24
F0.00183206106870229
sg25
I10433518
sg26
F1.885134956811558
ssS'PAI LOU L'
p280
(dp281
g3
g5
sg4
g5
sg6
I32047
sg7
I00
sg8
g5
sg9
g5
sg10
g29
sg11
g5
sg12
g5
sg13
g5
sg14
g5
sg15
I1829457
sg16
g5
sg17
I1000000
sg18
I23817930
sg19
g5
sg20
g5
sg21
I8453763
sg22
I261879
sg23
I3123383
sg24
g29
sg25
I15364167
sg26
F3.8185574253758414
ssS'BAY FRANKLIN R'
p282
(dp283
g3
g5
sg4
I260455
sg6
I129142
sg7
I00
sg8
I-201641
sg9
g5
sg10
g29
sg11
I-82782
sg12
g5
sg13
g5
sg14
g5
sg15
I69
sg16
g5
sg17
I400000
sg18
I63014
sg19
g5
sg20
g5
sg21
I145796
sg22
I239671
sg23
I827696
sg24
g29
sg25
g5
sg26
F1.6689545251615756
ssS'HAYSLETT RODERICK J'
p284
(dp285
g3
I2649
sg4
g5
sg6
g5
sg7
I00
sg8
g5
sg9
g5
sg10
F0.03298774740810556
sg11
g5
sg12
I571
sg13
g5
sg14
I1061
sg15
g5
sg16
g5
sg17
g5
sg18
I346663
sg19
I35
sg20
I38
sg21
I346663
sg22
g5
sg23
g5
sg24
F0.014345035862589657
sg25
g5
sg26
g29
ssS'FUGH JOHN L'
p286
(dp287
g3
g5
sg4
I50591
sg6
g5
sg7
I00
sg8
g5
sg9
g5
sg10
g29
sg11
g5
sg12
g5
sg13
g5
sg14
g5
sg15
g5
sg16
g5
sg17
g5
sg18
I176378
sg19
g5
sg20
g5
sg21
g5
sg22
g5
sg23
I50591
sg24
g29
sg25
I176378
sg26
g29
ssS'FALLON JAMES B'
p288
(dp289
g3
I1755
sg4
g5
sg6
I95924
sg7
I00
sg8
g5
sg9
I374347
sg10
F0.56
sg11
g5
sg12
I1604
sg13
g5
sg14
I75
sg15
I401481
sg16
g5
sg17
I2500000
sg18
I2332399
sg19
I42
sg20
I37
sg21
I1392142
sg22
I304588
sg23
I3676340
sg24
F0.021082621082621083
sg25
I940257
sg26
F8.207808580771403
ssS'KOENIG MARK E'
p290
(dp291
g3
I2374
sg4
g5
sg6
I127017
sg7
I01
sg8
g5
sg9
I300000
sg10
F0.8688524590163934
sg11
g5
sg12
I2271
sg13
g5
sg14
I61
sg15
I150458
sg16
g5
sg17
I700000
sg18
I1920055
sg19
I53
sg20
I15
sg21
I1248318
sg22
I309946
sg23
I1587421
sg24
F0.006318449873631003
sg25
I671737
sg26
F2.2584579249288588
ssS'SAVAGE FRANK'
p292
(dp293
g3
g5
sg4
g5
sg6
g5
sg7
I00
sg8
I-121284
sg9
g5
sg10
g29
sg11
g5
sg12
g5
sg13
g5
sg14
g5
sg15
g5
sg16
I125034
sg17
g5
sg18
g5
sg19
g5
sg20
g5
sg21
g5
sg22
g5
sg23
I3750
sg24
g29
sg25
g5
sg26
g29
ssS'IZZO LAWRENCE L'
p294
(dp295
g3
I496
sg4
g5
sg6
I28093
sg7
I00
sg8
g5
sg9
I312500
sg10
F1.4736842105263157
sg11
g5
sg12
I437
sg13
g5
sg14
I19
sg15
I1553729
sg16
g5
sg17
g5
sg18
I5819980
sg19
I28
sg20
I5
sg21
I3654808
sg22
I85274
sg23
I1979596
sg24
F0.010080645161290322
sg25
I2165172
sg26
g29
ssS'TILNEY ELIZABETH A'
p296
(dp297
g3
I460
sg4
g5
sg6
g5
sg7
I00
sg8
I-575000
sg9
I275000
sg10
F0.5263157894736842
sg11
g5
sg12
I379
sg13
g5
sg14
I19
sg15
I152055
sg16
g5
sg17
I300000
sg18
I1168042
sg19
I10
sg20
I11
sg21
I576792
sg22
I247338
sg23
I399393
sg24
F0.02391304347826087
sg25
I591250
sg26
F1.2129151201998885
ssS'MARTIN AMANDA K'
p298
(dp299
g3
I1522
sg4
I85430
sg6
I8211
sg7
I00
sg8
g5
sg9
I5145434
sg10
F0.034782608695652174
sg11
g5
sg12
I477
sg13
g5
sg14
I230
sg15
I2818454
sg16
g5
sg17
g5
sg18
I2070306
sg19
I8
sg20
I0
sg21
g5
sg22
I349487
sg23
I8407016
sg24
F0.0
sg25
I2070306
sg26
g29
ssS'BUY RICHARD B'
p300
(dp301
g3
I3523
sg4
I649584
sg6
g5
sg7
I00
sg8
I-694862
sg9
I769862
sg10
F0.14814814814814814
sg11
g5
sg12
I2333
sg13
g5
sg14
I1053
sg15
I400572
sg16
g5
sg17
I900000
sg18
I3444470
sg19
I156
sg20
I71
sg21
I901657
sg22
I330546
sg23
I2355702
sg24
F0.02015327845586148
sg25
I2542813
sg26
F2.722767784211577
ssS'GRAMM WENDY L'
p302
(dp303
g3
g5
sg4
g5
sg6
g5
sg7
I00
sg8
g5
sg9
g5
sg10
g29
sg11
g5
sg12
g5
sg13
g5
sg14
g5
sg15
g5
sg16
I119292
sg17
g5
sg18
g5
sg19
g5
sg20
g5
sg21
g5
sg22
g5
sg23
I119292
sg24
g29
sg25
g5
sg26
g29
ssS'CAUSEY RICHARD A'
p304
(dp305
g3
I1892
sg4
g5
sg6
I30674
sg7
I01
sg8
I-235000
sg9
I350000
sg10
F1.183673469387755
sg11
g5
sg12
I1585
sg13
g5
sg14
I49
sg15
I307895
sg16
g5
sg17
I1000000
sg18
I2502063
sg19
I58
sg20
I12
sg21
I2502063
sg22
I415189
sg23
I1868758
sg24
F0.006342494714587738
sg25
g5
sg26
F2.4085416521150607
ssS'TAYLOR MITCHELL S'
p306
(dp307
g3
I533
sg4
I227449
sg6
g5
sg7
I00
sg8
g5
sg9
g5
sg10
F0.0
sg11
g5
sg12
I300
sg13
g5
sg14
I29
sg15
g5
sg16
g5
sg17
I600000
sg18
I3745048
sg19
I0
sg20
I0
sg21
I563798
sg22
I265214
sg23
I1092663
sg24
F0.0
sg25
I3181250
sg26
F2.2623240100447184
ssS'DONAHUE JR JEFFREY M'
p308
(dp309
g3
I865
sg4
g5
sg6
I96268
sg7
I00
sg8
I-300000
sg9
g5
sg10
F8.545454545454545
sg11
g5
sg12
I772
sg13
g5
sg14
I22
sg15
I891
sg16
g5
sg17
I800000
sg18
I1080988
sg19
I188
sg20
I11
sg21
I315068
sg22
I278601
sg23
I875760
sg24
F0.012716763005780347
sg25
I765920
sg26
F2.8714900520816506
ssS'GLISAN JR BEN F'
p310
(dp311
g3
I873
sg4
g5
sg6
I125978
sg7
I01
sg8
g5
sg9
I71023
sg10
F3.25
sg11
g5
sg12
I874
sg13
g5
sg14
I16
sg15
I200308
sg16
g5
sg17
I600000
sg18
I778546
sg19
I52
sg20
I6
sg21
I393818
sg22
I274975
sg23
I1272284
sg24
F0.006872852233676976
sg25
I384728
sg26
F2.1820165469588146
ss.